target datalayout = "e-m:e-p270:32:32-p271:32:32-p272:64:64-i64:64-i128:128-f80:128-n8:16:32:64-S128"
target triple = "x86_64-pc-linux-gnu"

%"class.std::__1::basic_string" = type { %"class.std::__1::__compressed_pair" }
%"class.std::__1::__compressed_pair" = type { %"struct.std::__1::__compressed_pair_elem" }
%"struct.std::__1::__compressed_pair_elem" = type { %"struct.std::__1::basic_string<char>::__rep" }
%"struct.std::__1::basic_string<char>::__rep" = type { %union.anon }
%union.anon = type { %"struct.std::__1::basic_string<char>::__long" }
%"struct.std::__1::basic_string<char>::__long" = type { %struct.anon.6, i64, ptr }
%struct.anon.6 = type { i64 }
%"class.mitsuba::Class" = type { %"class.std::__1::basic_string", %"class.std::__1::basic_string", %"class.std::__1::basic_string", %"class.std::__1::basic_string", ptr, [8 x i8], %"class.std::__1::function", %"class.std::__1::function.0" }
%"class.std::__1::function" = type { %"class.std::__1::__function::__value_func" }
%"class.std::__1::__function::__value_func" = type { %"struct.std::__1::aligned_storage<24>::type", ptr, [8 x i8] }
%"struct.std::__1::aligned_storage<24>::type" = type { [32 x i8] }
%"class.std::__1::function.0" = type { %"class.std::__1::__function::__value_func.4" }
%"class.std::__1::__function::__value_func.4" = type { %"struct.std::__1::aligned_storage<24>::type", ptr, [8 x i8] }
%"class.mitsuba::ref" = type { ptr }
%"class.mitsuba::Object" = type <{ ptr, %"struct.std::__1::atomic", [4 x i8] }>
%"struct.std::__1::atomic" = type { %"struct.std::__1::__atomic_base" }
%"struct.std::__1::__atomic_base" = type { %"struct.std::__1::__atomic_base.25" }
%"struct.std::__1::__atomic_base.25" = type { %"struct.std::__1::__cxx_atomic_impl" }
%"struct.std::__1::__cxx_atomic_impl" = type { %"struct.std::__1::__cxx_atomic_base_impl" }
%"struct.std::__1::__cxx_atomic_base_impl" = type { i32 }

@_ZN7mitsuba7m_classE = global ptr null, align 8
@.str.7 = private unnamed_addr constant [114 x i8] c"generated/home/dtcxzyw/WorkSpace/Projects/compilers/llvm-opt-benchmark/bench/mitsuba3/mitsuba3/src/core/class.cpp\00", align 1
@.str.8 = private unnamed_addr constant [67 x i8] c"RTTI error: Attempted to construct a non-constructible class (%s)!\00", align 1
@_ZTINSt3__117bad_function_callE = linkonce_odr constant { ptr, ptr, ptr } { ptr getelementptr inbounds (ptr, ptr @_ZTVN10__cxxabiv120__si_class_type_infoE, i64 2), ptr @_ZTSNSt3__117bad_function_callE, ptr @_ZTISt9exception }, comdat, align 8
@_ZTVNSt3__117bad_function_callE = linkonce_odr unnamed_addr constant { [5 x ptr] } { [5 x ptr] [ptr null, ptr @_ZTINSt3__117bad_function_callE, ptr @_ZNSt3__117bad_function_callD2Ev, ptr @_ZNSt3__117bad_function_callD0Ev, ptr @_ZNKSt9exception4whatEv] }, comdat, align 8
@_ZTVSt9exception = external unnamed_addr constant { [5 x ptr] }, align 8

; Function Attrs: mustprogress nounwind uwtable
define linkonce_odr hidden noundef i32 @_ZNSt3__122__cxx_atomic_fetch_addB8ne190000IiEET_PNS_22__cxx_atomic_base_implIS1_EES1_NS_12memory_orderE(ptr noundef %0, i32 noundef %1, i32 noundef %2) #2 comdat {
  %4 = alloca ptr, align 8
  %5 = alloca i32, align 4
  %6 = alloca i32, align 4
  %7 = alloca i32, align 4
  %8 = alloca i32, align 4
  store ptr %0, ptr %4, align 8
  store i32 %1, ptr %5, align 4
  store i32 %2, ptr %6, align 4
  %9 = load ptr, ptr %4, align 8
  %10 = getelementptr inbounds %"struct.std::__1::__cxx_atomic_base_impl", ptr %9, i32 0, i32 0
  %11 = load i32, ptr %6, align 4
  %12 = load i32, ptr %5, align 4
  store i32 %12, ptr %7, align 4
  switch i32 %11, label %13 [
    i32 1, label %16
    i32 2, label %16
    i32 3, label %19
    i32 4, label %22
    i32 5, label %25
  ]

13:                                               ; preds = %3
  %14 = load i32, ptr %7, align 4
  %15 = atomicrmw add ptr %10, i32 %14 monotonic, align 4
  store i32 %15, ptr %8, align 4
  br label %28

16:                                               ; preds = %3, %3
  %17 = load i32, ptr %7, align 4
  %18 = atomicrmw add ptr %10, i32 %17 acquire, align 4
  store i32 %18, ptr %8, align 4
  br label %28

19:                                               ; preds = %3
  %20 = load i32, ptr %7, align 4
  %21 = atomicrmw add ptr %10, i32 %20 release, align 4
  store i32 %21, ptr %8, align 4
  br label %28

22:                                               ; preds = %3
  %23 = load i32, ptr %7, align 4
  %24 = atomicrmw add ptr %10, i32 %23 acq_rel, align 4
  store i32 %24, ptr %8, align 4
  br label %28

25:                                               ; preds = %3
  %26 = load i32, ptr %7, align 4
  %27 = atomicrmw add ptr %10, i32 %26 seq_cst, align 4
  store i32 %27, ptr %8, align 4
  br label %28

28:                                               ; preds = %25, %22, %19, %16, %13
  %29 = load i32, ptr %8, align 4
  ret i32 %29
}

; Function Attrs: mustprogress nounwind uwtable
define linkonce_odr hidden void @_ZNSt9exceptionC2B8ne190000Ev(ptr noundef nonnull align 8 dereferenceable(8) %0) unnamed_addr #2 comdat align 2 {
  %2 = alloca ptr, align 8
  store ptr %0, ptr %2, align 8
  %3 = load ptr, ptr %2, align 8
  store ptr getelementptr inbounds inrange(-16, 24) ({ [5 x ptr] }, ptr @_ZTVSt9exception, i32 0, i32 0, i32 2), ptr %3, align 8
  ret void
}

; Function Attrs: mustprogress nounwind uwtable
define linkonce_odr hidden noundef i32 @_ZNSt3__113__atomic_baseIiLb1EE9fetch_addB8ne190000EiNS_12memory_orderE(ptr noundef nonnull align 4 dereferenceable(4) %0, i32 noundef %1, i32 noundef %2) #2 comdat align 2 {
  %4 = alloca ptr, align 8
  %5 = alloca i32, align 4
  %6 = alloca i32, align 4
  store ptr %0, ptr %4, align 8
  store i32 %1, ptr %5, align 4
  store i32 %2, ptr %6, align 4
  %7 = load ptr, ptr %4, align 8
  %8 = getelementptr inbounds %"struct.std::__1::__atomic_base.25", ptr %7, i32 0, i32 0
  %9 = load i32, ptr %5, align 4
  %10 = load i32, ptr %6, align 4
  %11 = call noundef i32 @_ZNSt3__122__cxx_atomic_fetch_addB8ne190000IiEET_PNS_22__cxx_atomic_base_implIS1_EES1_NS_12memory_orderE(ptr noundef %8, i32 noundef %9, i32 noundef %10) #14
  ret i32 %11
}

; Function Attrs: mustprogress nounwind uwtable
define linkonce_odr hidden void @_ZNSt3__117bad_function_callC2B8ne190000Ev(ptr noundef nonnull align 8 dereferenceable(8) %0) unnamed_addr #2 comdat align 2 {
  %2 = alloca ptr, align 8
  store ptr %0, ptr %2, align 8
  %3 = load ptr, ptr %2, align 8
  call void @_ZNSt9exceptionC2B8ne190000Ev(ptr noundef nonnull align 8 dereferenceable(8) %3) #14
  store ptr getelementptr inbounds inrange(-16, 24) ({ [5 x ptr] }, ptr @_ZTVNSt3__117bad_function_callE, i32 0, i32 0, i32 2), ptr %3, align 8
  ret void
}

; Function Attrs: mustprogress nounwind uwtable
define linkonce_odr hidden noundef i32 @_ZNSt3__113__atomic_baseIiLb1EEppB8ne190000Ev(ptr noundef nonnull align 4 dereferenceable(4) %0) #2 comdat align 2 {
  %2 = alloca ptr, align 8
  store ptr %0, ptr %2, align 8
  %3 = load ptr, ptr %2, align 8
  %4 = call noundef i32 @_ZNSt3__113__atomic_baseIiLb1EE9fetch_addB8ne190000EiNS_12memory_orderE(ptr noundef nonnull align 4 dereferenceable(4) %3, i32 noundef 1, i32 noundef 5) #14
  %5 = add nsw i32 %4, 1
  ret i32 %5
}

; Function Attrs: mustprogress noreturn uwtable
define linkonce_odr hidden void @_ZNSt3__125__throw_bad_function_callB8ne190000Ev() #9 comdat {
  %1 = call ptr @__cxa_allocate_exception(i64 8) #14
  call void @llvm.memset.p0.i64(ptr align 16 %1, i8 0, i64 8, i1 false)
  call void @_ZNSt3__117bad_function_callC2B8ne190000Ev(ptr noundef nonnull align 8 dereferenceable(8) %1) #14
  call void @__cxa_throw(ptr %1, ptr @_ZTINSt3__117bad_function_callE, ptr @_ZNSt3__117bad_function_callD2Ev) #16
  unreachable
}

; Function Attrs: mustprogress nounwind uwtable
define linkonce_odr void @_ZNK7mitsuba6Object7inc_refEv(ptr noundef nonnull align 8 dereferenceable(12) %0) #2 comdat align 2 {
  %2 = alloca ptr, align 8
  store ptr %0, ptr %2, align 8
  %3 = load ptr, ptr %2, align 8
  %4 = getelementptr inbounds %"class.mitsuba::Object", ptr %3, i32 0, i32 1
  %5 = call noundef i32 @_ZNSt3__113__atomic_baseIiLb1EEppB8ne190000Ev(ptr noundef nonnull align 4 dereferenceable(4) %4) #14
  ret void
}

; Function Attrs: mustprogress uwtable
define linkonce_odr hidden noundef ptr @_ZNKSt3__110__function12__value_funcIFPN7mitsuba6ObjectERKNS2_10PropertiesEEEclB8ne190000ES7_(ptr noundef nonnull align 16 dereferenceable(40) %0, ptr noundef nonnull align 1 %1) #0 comdat align 2 {
  %3 = alloca ptr, align 8
  %4 = alloca ptr, align 8
  store ptr %0, ptr %3, align 8
  store ptr %1, ptr %4, align 8
  %5 = load ptr, ptr %3, align 8
  %6 = getelementptr inbounds %"class.std::__1::__function::__value_func", ptr %5, i32 0, i32 1
  %7 = load ptr, ptr %6, align 16
  %8 = icmp eq ptr %7, null
  br i1 %8, label %9, label %10

9:                                                ; preds = %2
  call void @_ZNSt3__125__throw_bad_function_callB8ne190000Ev() #16
  unreachable

10:                                               ; preds = %2
  %11 = getelementptr inbounds %"class.std::__1::__function::__value_func", ptr %5, i32 0, i32 1
  %12 = load ptr, ptr %11, align 16
  %13 = load ptr, ptr %4, align 8
  %14 = load ptr, ptr %12, align 8
  %15 = getelementptr inbounds ptr, ptr %14, i64 6
  %16 = load ptr, ptr %15, align 8
  %17 = call noundef ptr %16(ptr noundef nonnull align 8 dereferenceable(8) %12, ptr noundef nonnull align 1 %13)
  ret ptr %17
}

; Function Attrs: mustprogress nounwind uwtable
define linkonce_odr hidden noundef zeroext i1 @_ZNKSt3__110__function12__value_funcIFPN7mitsuba6ObjectERKNS2_10PropertiesEEEcvbB8ne190000Ev(ptr noundef nonnull align 16 dereferenceable(40) %0) #2 comdat align 2 {
  %2 = alloca ptr, align 8
  store ptr %0, ptr %2, align 8
  %3 = load ptr, ptr %2, align 8
  %4 = getelementptr inbounds %"class.std::__1::__function::__value_func", ptr %3, i32 0, i32 1
  %5 = load ptr, ptr %4, align 16
  %6 = icmp ne ptr %5, null
  ret i1 %6
}

; Function Attrs: mustprogress uwtable
define linkonce_odr hidden void @_ZN7mitsuba3refINS_6ObjectEEC2IS1_EEPS1_(ptr noundef nonnull align 8 dereferenceable(8) %0, ptr noundef %1) unnamed_addr #0 comdat align 2 {
  %3 = alloca ptr, align 8
  %4 = alloca ptr, align 8
  store ptr %0, ptr %3, align 8
  store ptr %1, ptr %4, align 8
  %5 = load ptr, ptr %3, align 8
  %6 = getelementptr inbounds %"class.mitsuba::ref", ptr %5, i32 0, i32 0
  %7 = load ptr, ptr %4, align 8
  store ptr %7, ptr %6, align 8
  %8 = getelementptr inbounds %"class.mitsuba::ref", ptr %5, i32 0, i32 0
  %9 = load ptr, ptr %8, align 8
  %10 = icmp ne ptr %9, null
  br i1 %10, label %11, label %14

11:                                               ; preds = %2
  %12 = getelementptr inbounds %"class.mitsuba::ref", ptr %5, i32 0, i32 0
  %13 = load ptr, ptr %12, align 8
  call void @_ZNK7mitsuba6Object7inc_refEv(ptr noundef nonnull align 8 dereferenceable(12) %13)
  br label %14

14:                                               ; preds = %11, %2
  ret void
}

; Function Attrs: mustprogress uwtable
define linkonce_odr hidden noundef ptr @_ZNKSt3__18functionIFPN7mitsuba6ObjectERKNS1_10PropertiesEEEclES6_(ptr noundef nonnull align 16 dereferenceable(48) %0, ptr noundef nonnull align 1 %1) #0 comdat align 2 {
  %3 = alloca ptr, align 8
  %4 = alloca ptr, align 8
  store ptr %0, ptr %3, align 8
  store ptr %1, ptr %4, align 8
  %5 = load ptr, ptr %3, align 8
  %6 = getelementptr inbounds %"class.std::__1::function", ptr %5, i32 0, i32 0
  %7 = load ptr, ptr %4, align 8
  %8 = call noundef ptr @_ZNKSt3__110__function12__value_funcIFPN7mitsuba6ObjectERKNS2_10PropertiesEEEclB8ne190000ES7_(ptr noundef nonnull align 16 dereferenceable(40) %6, ptr noundef nonnull align 1 %7)
  ret ptr %8
}

; Function Attrs: mustprogress nounwind uwtable
define linkonce_odr noundef nonnull align 8 dereferenceable(24) ptr @_ZNK7mitsuba5Class4nameEv(ptr noundef nonnull align 16 dereferenceable(208) %0) #2 comdat align 2 {
  %2 = alloca ptr, align 8
  store ptr %0, ptr %2, align 8
  %3 = load ptr, ptr %2, align 8
  %4 = getelementptr inbounds %"class.mitsuba::Class", ptr %3, i32 0, i32 0
  ret ptr %4
}

; Function Attrs: mustprogress nounwind uwtable
define linkonce_odr hidden noundef zeroext i1 @_ZNKSt3__18functionIFPN7mitsuba6ObjectERKNS1_10PropertiesEEEcvbB8ne190000Ev(ptr noundef nonnull align 16 dereferenceable(48) %0) #2 comdat align 2 {
  %2 = alloca ptr, align 8
  store ptr %0, ptr %2, align 8
  %3 = load ptr, ptr %2, align 8
  %4 = getelementptr inbounds %"class.std::__1::function", ptr %3, i32 0, i32 0
  %5 = call noundef zeroext i1 @_ZNKSt3__110__function12__value_funcIFPN7mitsuba6ObjectERKNS2_10PropertiesEEEcvbB8ne190000Ev(ptr noundef nonnull align 16 dereferenceable(40) %4) #14
  ret i1 %5
}

; Function Attrs: mustprogress uwtable
define void @_ZNK7mitsuba5Class9constructERKNS_10PropertiesE(ptr dead_on_unwind noalias writable sret(%"class.mitsuba::ref") align 8 %0, ptr noundef nonnull align 16 dereferenceable(208) %1, ptr noundef nonnull align 1 %2) #0 align 2 personality ptr @__gxx_personality_v0 {
  %4 = alloca ptr, align 8
  %5 = alloca ptr, align 8
  %6 = alloca ptr, align 8
  %7 = alloca %"class.std::__1::basic_string", align 8
  %8 = alloca ptr, align 8
  %9 = alloca i32, align 4
  store ptr %0, ptr %4, align 8
  store ptr %1, ptr %5, align 8
  store ptr %2, ptr %6, align 8
  %10 = load ptr, ptr %5, align 8
  %11 = getelementptr inbounds %"class.mitsuba::Class", ptr %10, i32 0, i32 6
  %12 = call noundef zeroext i1 @_ZNKSt3__18functionIFPN7mitsuba6ObjectERKNS1_10PropertiesEEEcvbB8ne190000Ev(ptr noundef nonnull align 16 dereferenceable(48) %11) #14
  br i1 %12, label %23, label %13

13:                                               ; preds = %3
  br label %14

14:                                               ; preds = %13
  %15 = load ptr, ptr @_ZN7mitsuba7m_classE, align 8
  %16 = call noundef nonnull align 8 dereferenceable(24) ptr @_ZNK7mitsuba5Class4nameEv(ptr noundef nonnull align 16 dereferenceable(208) %10)
  call void @_ZN10tinyformat6formatIJNSt3__112basic_stringIcNS1_11char_traitsIcEENS1_9allocatorIcEEEEEEES7_PKcDpRKT_(ptr dead_on_unwind writable sret(%"class.std::__1::basic_string") align 8 %7, ptr noundef @.str.8, ptr noundef nonnull align 8 dereferenceable(24) %16)
  invoke void @_ZN7mitsuba6detail5ThrowENS_8LogLevelEPKNS_5ClassEPKciRKNSt3__112basic_stringIcNS7_11char_traitsIcEENS7_9allocatorIcEEEE(i32 noundef 400, ptr noundef %15, ptr noundef @.str.7, i32 noundef 98, ptr noundef nonnull align 8 dereferenceable(24) %7) #16
          to label %17 unwind label %18

17:                                               ; preds = %14
  unreachable

18:                                               ; preds = %14
  %19 = landingpad { ptr, i32 }
          cleanup
  %20 = extractvalue { ptr, i32 } %19, 0
  store ptr %20, ptr %8, align 8
  %21 = extractvalue { ptr, i32 } %19, 1
  store i32 %21, ptr %9, align 4
  call void @_ZNSt3__112basic_stringIcNS_11char_traitsIcEENS_9allocatorIcEEED1Ev(ptr noundef nonnull align 8 dereferenceable(24) %7) #14
  br label %27

22:                                               ; No predecessors!
  br label %23

23:                                               ; preds = %22, %3
  %24 = getelementptr inbounds %"class.mitsuba::Class", ptr %10, i32 0, i32 6
  %25 = load ptr, ptr %6, align 8
  %26 = call noundef ptr @_ZNKSt3__18functionIFPN7mitsuba6ObjectERKNS1_10PropertiesEEEclES6_(ptr noundef nonnull align 16 dereferenceable(48) %24, ptr noundef nonnull align 1 %25)
  call void @_ZN7mitsuba3refINS_6ObjectEEC2IS1_EEPS1_(ptr noundef nonnull align 8 dereferenceable(8) %0, ptr noundef %26)
  ret void

27:                                               ; preds = %18
  %28 = load ptr, ptr %8, align 8
  %29 = load i32, ptr %9, align 4
  %30 = insertvalue { ptr, i32 } poison, ptr %28, 0
  %31 = insertvalue { ptr, i32 } %30, i32 %29, 1
  resume { ptr, i32 } %31
}