; Function Attrs: mustprogress uwtable
define void @_ZNK7mitsuba5Class9constructERKNS_10PropertiesE(ptr dead_on_unwind noalias nocapture writable writeonly sret(%"class.mitsuba::ref") align 8 %0, ptr noundef nonnull align 16 dereferenceable(208) %1, ptr noundef nonnull align 1 %2) local_unnamed_addr #0 align 2 personality ptr @__gxx_personality_v0 {
  %4 = alloca %"class.std::__1::basic_string", align 8
  %5 = getelementptr inbounds i8, ptr %1, i64 144
  %6 = load ptr, ptr %5, align 16
  %.not = icmp eq ptr %6, null
  br i1 %.not, label %7, label %_ZNKSt3__18functionIFPN7mitsuba6ObjectERKNS1_10PropertiesEEEclES6_.exit

7:                                                ; preds = %3
  %8 = load ptr, ptr @_ZN7mitsuba7m_classE, align 8
  call void @_ZN10tinyformat6formatIJNSt3__112basic_stringIcNS1_11char_traitsIcEENS1_9allocatorIcEEEEEEES7_PKcDpRKT_(ptr dead_on_unwind nonnull writable sret(%"class.std::__1::basic_string") align 8 %4, ptr noundef nonnull @.str.8, ptr noundef nonnull align 8 dereferenceable(24) %1)
  invoke void @_ZN7mitsuba6detail5ThrowENS_8LogLevelEPKNS_5ClassEPKciRKNSt3__112basic_stringIcNS7_11char_traitsIcEENS7_9allocatorIcEEEE(i32 noundef 400, ptr noundef %8, ptr noundef nonnull @.str.7, i32 noundef 98, ptr noundef nonnull align 8 dereferenceable(24) %4) #18
          to label %9 unwind label %10

9:                                                ; preds = %7
  unreachable

10:                                               ; preds = %7
  %11 = landingpad { ptr, i32 }
          cleanup
  call void @_ZNSt3__112basic_stringIcNS_11char_traitsIcEENS_9allocatorIcEEED1Ev(ptr noundef nonnull align 8 dereferenceable(24) %4) #17
  resume { ptr, i32 } %11

_ZNKSt3__18functionIFPN7mitsuba6ObjectERKNS1_10PropertiesEEEclES6_.exit: ; preds = %3
  %12 = load ptr, ptr %6, align 8
  %13 = getelementptr inbounds i8, ptr %12, i64 48
  %14 = load ptr, ptr %13, align 8
  %15 = tail call noundef ptr %14(ptr noundef nonnull align 8 dereferenceable(8) %6, ptr noundef nonnull align 1 %2)
  store ptr %15, ptr %0, align 8
  %.not.i = icmp eq ptr %15, null
  br i1 %.not.i, label %_ZN7mitsuba3refINS_6ObjectEEC2IS1_EEPS1_.exit, label %16

16:                                               ; preds = %_ZNKSt3__18functionIFPN7mitsuba6ObjectERKNS1_10PropertiesEEEclES6_.exit
  %17 = getelementptr inbounds i8, ptr %15, i64 8
  %18 = atomicrmw add ptr %17, i32 1 seq_cst, align 4
  br label %_ZN7mitsuba3refINS_6ObjectEEC2IS1_EEPS1_.exit

_ZN7mitsuba3refINS_6ObjectEEC2IS1_EEPS1_.exit:    ; preds = %_ZNKSt3__18functionIFPN7mitsuba6ObjectERKNS1_10PropertiesEEEclES6_.exit, %16
  ret void
}